target datalayout = "e-m:e-p270:32:32-p271:32:32-p272:64:64-i64:64-i128:128-f80:128-n8:16:32:64-S128"
target triple = "x86_64-pc-linux-gnu"

%struct.H5C_cache_image_ctl_t = type { i32, i8, i8, i32, i32 }
%struct.H5C_t = type { i8, ptr, ptr, i32, ptr, i64, i64, ptr, i8, ptr, i8, i8, i32, i64, [6 x i32], [6 x i64], i64, [6 x i64], i64, [6 x i64], [65536 x ptr], i32, i64, ptr, ptr, i64, ptr, ptr, i8, i8, i32, i64, [6 x i32], [6 x i64], ptr, i32, ptr, i8, i32, i32, i64, ptr, ptr, i32, i64, ptr, ptr, i32, i64, ptr, ptr, i8, i8, i64, i8, i8, i8, i8, i8, i8, %struct.H5C_auto_size_ctl_t, i32, [10 x i8], [11 x i32], i32, i32, i32, [10 x %struct.H5C_cache_entry_t], i64, i64, %struct.H5C_cache_image_ctl_t, i8, i8, i8, i8, i64, i64, i64, i64, i64, i64, i64, i32, ptr, ptr, i8, i8, [32 x i8] }
%struct.H5C_auto_size_ctl_t = type { i32, ptr, i8, i64, double, i64, i64, i64, i32, double, double, i8, i64, i32, double, double, i32, double, double, i8, i64, i32, i8, double }
%struct.H5C_cache_entry_t = type { ptr, i64, i64, ptr, i8, ptr, i8, i8, i8, i8, i32, i8, i8, i8, i8, i8, i32, ptr, i32, i32, i32, i32, i32, i8, i8, ptr, ptr, ptr, ptr, ptr, ptr, i8, i32, i8, i64, ptr, i64, i64, i32, i8, i32, i32, i8, ptr, ptr, ptr }
%struct.H5C_log_info_t = type { i8, i8, ptr, ptr }

@H5AC_init_g = global i8 0, align 1
@H5_libterm_g = external global i8, align 1
@.str = private unnamed_addr constant [98 x i8] c"generated/home/dtcxzyw/WorkSpace/Projects/compilers/llvm-opt-benchmark/bench/hdf5/hdf5/src/H5AC.c\00", align 1
@H5E_FUNC_g = external global i64, align 8
@H5E_CANTINIT_g = external global i64, align 8
@.str.1 = private unnamed_addr constant [32 x i8] c"interface initialization failed\00", align 1
@H5E_CACHE_g = external global i64, align 8
@H5E_LOGGING_g = external global i64, align 8
@.str.7 = private unnamed_addr constant [27 x i8] c"unable to emit log message\00", align 1
@__func__.H5AC_create_flush_dependency = private unnamed_addr constant [29 x i8] c"H5AC_create_flush_dependency\00", align 1
@H5E_CANTDEPEND_g = external global i64, align 8
@.str.28 = private unnamed_addr constant [37 x i8] c"H5C_create_flush_dependency() failed\00", align 1

; Function Attrs: nounwind uwtable
define i32 @H5AC__init_package() #0 {
  %1 = load i8, ptr @H5AC_init_g, align 1, !tbaa !7, !range !9, !noundef !10
  %2 = trunc i8 %1 to i1
  br i1 %2, label %7, label %3

3:                                                ; preds = %0
  %4 = load i8, ptr @H5_libterm_g, align 1, !tbaa !7, !range !9, !noundef !10
  %5 = trunc i8 %4 to i1
  %6 = xor i1 %5, true
  br label %7

7:                                                ; preds = %3, %0
  %8 = phi i1 [ true, %0 ], [ %6, %3 ]
  %9 = xor i1 %8, true
  %10 = xor i1 %9, true
  %11 = zext i1 %10 to i32
  %12 = sext i32 %11 to i64
  %13 = call i64 @llvm.expect.i64(i64 %12, i64 1)
  %14 = icmp ne i64 %13, 0
  br i1 %14, label %15, label %16

15:                                               ; preds = %7
  br label %16

16:                                               ; preds = %15, %7
  ret i32 0
}

; Function Attrs: nounwind uwtable
define i32 @H5AC_create_flush_dependency(ptr noundef %0, ptr noundef %1) #0 {
  %3 = alloca ptr, align 8
  %4 = alloca ptr, align 8
  %5 = alloca ptr, align 8
  %6 = alloca ptr, align 8
  %7 = alloca i32, align 4
  %8 = alloca i8, align 1
  store ptr %0, ptr %3, align 8, !tbaa !84
  store ptr %1, ptr %4, align 8, !tbaa !84
  call void @llvm.lifetime.start.p0(i64 8, ptr %5) #6
  store ptr null, ptr %5, align 8, !tbaa !89
  call void @llvm.lifetime.start.p0(i64 8, ptr %6) #6
  store ptr null, ptr %6, align 8, !tbaa !42
  call void @llvm.lifetime.start.p0(i64 4, ptr %7) #6
  store i32 0, ptr %7, align 4, !tbaa !3
  call void @llvm.lifetime.start.p0(i64 1, ptr %8) #6
  store i8 0, ptr %8, align 1, !tbaa !7
  %9 = load i8, ptr @H5AC_init_g, align 1, !tbaa !7, !range !9, !noundef !10
  %10 = trunc i8 %9 to i1
  br i1 %10, label %15, label %11

11:                                               ; preds = %2
  %12 = load i8, ptr @H5_libterm_g, align 1, !tbaa !7, !range !9, !noundef !10
  %13 = trunc i8 %12 to i1
  %14 = xor i1 %13, true
  br label %15

15:                                               ; preds = %11, %2
  %16 = phi i1 [ false, %2 ], [ %14, %11 ]
  %17 = xor i1 %16, true
  %18 = xor i1 %17, true
  %19 = zext i1 %18 to i32
  %20 = sext i32 %19 to i64
  %21 = call i64 @llvm.expect.i64(i64 %20, i64 0)
  %22 = icmp ne i64 %21, 0
  br i1 %22, label %23, label %46

23:                                               ; preds = %15
  store i8 1, ptr @H5AC_init_g, align 1, !tbaa !7
  %24 = call i32 @H5AC__init_package()
  %25 = icmp slt i32 %24, 0
  br i1 %25, label %26, label %45

26:                                               ; preds = %23
  store i8 0, ptr @H5AC_init_g, align 1, !tbaa !7
  br label %27

27:                                               ; preds = %26
  br label %28

28:                                               ; preds = %27
  br label %29

29:                                               ; preds = %28
  %30 = load i64, ptr @H5E_FUNC_g, align 8, !tbaa !11
  %31 = load i64, ptr @H5E_CANTINIT_g, align 8, !tbaa !11
  %32 = call i32 (ptr, ptr, i32, i64, i64, ptr, ...) @H5E_printf_stack(ptr noundef @.str, ptr noundef @__func__.H5AC_create_flush_dependency, i32 noundef 1222, i64 noundef %30, i64 noundef %31, ptr noundef @.str.1)
  br label %33

33:                                               ; preds = %29
  br label %34

34:                                               ; preds = %33
  store i8 1, ptr %8, align 1, !tbaa !7
  %35 = load i8, ptr %8, align 1, !tbaa !7, !range !9, !noundef !10
  %36 = trunc i8 %35 to i1
  %37 = zext i1 %36 to i8
  store i8 %37, ptr %8, align 1, !tbaa !7
  br label %38

38:                                               ; preds = %34
  br label %39

39:                                               ; preds = %38
  br label %40

40:                                               ; preds = %39
  store i32 -1, ptr %7, align 4, !tbaa !3
  br label %90

41:                                               ; No predecessors!
  br label %42

42:                                               ; preds = %41
  br label %43

43:                                               ; preds = %42
  br label %44

44:                                               ; preds = %43
  br label %45

45:                                               ; preds = %44, %23
  br label %46

46:                                               ; preds = %45, %15
  %47 = load i8, ptr @H5AC_init_g, align 1, !tbaa !7, !range !9, !noundef !10
  %48 = trunc i8 %47 to i1
  br i1 %48, label %53, label %49

49:                                               ; preds = %46
  %50 = load i8, ptr @H5_libterm_g, align 1, !tbaa !7, !range !9, !noundef !10
  %51 = trunc i8 %50 to i1
  %52 = xor i1 %51, true
  br label %53

53:                                               ; preds = %49, %46
  %54 = phi i1 [ true, %46 ], [ %52, %49 ]
  %55 = xor i1 %54, true
  %56 = xor i1 %55, true
  %57 = zext i1 %56 to i32
  %58 = sext i32 %57 to i64
  %59 = call i64 @llvm.expect.i64(i64 %58, i64 1)
  %60 = icmp ne i64 %59, 0
  br i1 %60, label %61, label %131

61:                                               ; preds = %53
  %62 = load ptr, ptr %3, align 8, !tbaa !84
  store ptr %62, ptr %5, align 8, !tbaa !89
  %63 = load ptr, ptr %5, align 8, !tbaa !89
  %64 = getelementptr inbounds nuw %struct.H5C_cache_entry_t, ptr %63, i32 0, i32 0
  %65 = load ptr, ptr %64, align 8, !tbaa !90
  store ptr %65, ptr %6, align 8, !tbaa !42
  %66 = load ptr, ptr %3, align 8, !tbaa !84
  %67 = load ptr, ptr %4, align 8, !tbaa !84
  %68 = call i32 @H5C_create_flush_dependency(ptr noundef %66, ptr noundef %67)
  %69 = icmp slt i32 %68, 0
  br i1 %69, label %70, label %89

70:                                               ; preds = %61
  br label %71

71:                                               ; preds = %70
  br label %72

72:                                               ; preds = %71
  br label %73

73:                                               ; preds = %72
  %74 = load i64, ptr @H5E_CACHE_g, align 8, !tbaa !11
  %75 = load i64, ptr @H5E_CANTDEPEND_g, align 8, !tbaa !11
  %76 = call i32 (ptr, ptr, i32, i64, i64, ptr, ...) @H5E_printf_stack(ptr noundef @.str, ptr noundef @__func__.H5AC_create_flush_dependency, i32 noundef 1234, i64 noundef %74, i64 noundef %75, ptr noundef @.str.28)
  br label %77

77:                                               ; preds = %73
  br label %78

78:                                               ; preds = %77
  store i8 1, ptr %8, align 1, !tbaa !7
  %79 = load i8, ptr %8, align 1, !tbaa !7, !range !9, !noundef !10
  %80 = trunc i8 %79 to i1
  %81 = zext i1 %80 to i8
  store i8 %81, ptr %8, align 1, !tbaa !7
  br label %82

82:                                               ; preds = %78
  br label %83

83:                                               ; preds = %82
  br label %84

84:                                               ; preds = %83
  store i32 -1, ptr %7, align 4, !tbaa !3
  br label %90

85:                                               ; No predecessors!
  br label %86

86:                                               ; preds = %85
  br label %87

87:                                               ; preds = %86
  br label %88

88:                                               ; preds = %87
  br label %89

89:                                               ; preds = %88, %61
  br label %90

90:                                               ; preds = %89, %84, %40
  %91 = load ptr, ptr %6, align 8, !tbaa !42
  %92 = icmp ne ptr %91, null
  br i1 %92, label %93, label %130

93:                                               ; preds = %90
  %94 = load ptr, ptr %6, align 8, !tbaa !42
  %95 = getelementptr inbounds nuw %struct.H5C_t, ptr %94, i32 0, i32 1
  %96 = load ptr, ptr %95, align 8, !tbaa !56
  %97 = icmp ne ptr %96, null
  br i1 %97, label %98, label %130

98:                                               ; preds = %93
  %99 = load ptr, ptr %6, align 8, !tbaa !42
  %100 = getelementptr inbounds nuw %struct.H5C_t, ptr %99, i32 0, i32 1
  %101 = load ptr, ptr %100, align 8, !tbaa !56
  %102 = getelementptr inbounds nuw %struct.H5C_log_info_t, ptr %101, i32 0, i32 1
  %103 = load i8, ptr %102, align 1, !tbaa !64, !range !9, !noundef !10
  %104 = trunc i8 %103 to i1
  br i1 %104, label %105, label %129

105:                                              ; preds = %98
  %106 = load ptr, ptr %6, align 8, !tbaa !42
  %107 = load ptr, ptr %3, align 8, !tbaa !84
  %108 = load ptr, ptr %4, align 8, !tbaa !84
  %109 = load i32, ptr %7, align 4, !tbaa !3
  %110 = call i32 @H5C_log_write_create_fd_msg(ptr noundef %106, ptr noundef %107, ptr noundef %108, i32 noundef %109)
  %111 = icmp slt i32 %110, 0
  br i1 %111, label %112, label %128

112:                                              ; preds = %105
  br label %113

113:                                              ; preds = %112
  br label %114

114:                                              ; preds = %113
  br label %115

115:                                              ; preds = %114
  %116 = load i64, ptr @H5E_CACHE_g, align 8, !tbaa !11
  %117 = load i64, ptr @H5E_LOGGING_g, align 8, !tbaa !11
  %118 = call i32 (ptr, ptr, i32, i64, i64, ptr, ...) @H5E_printf_stack(ptr noundef @.str, ptr noundef @__func__.H5AC_create_flush_dependency, i32 noundef 1242, i64 noundef %116, i64 noundef %117, ptr noundef @.str.7)
  br label %119

119:                                              ; preds = %115
  br label %120

120:                                              ; preds = %119
  store i8 1, ptr %8, align 1, !tbaa !7
  %121 = load i8, ptr %8, align 1, !tbaa !7, !range !9, !noundef !10
  %122 = trunc i8 %121 to i1
  %123 = zext i1 %122 to i8
  store i8 %123, ptr %8, align 1, !tbaa !7
  br label %124

124:                                              ; preds = %120
  br label %125

125:                                              ; preds = %124
  store i32 -1, ptr %7, align 4, !tbaa !3
  br label %126

126:                                              ; preds = %125
  br label %127

127:                                              ; preds = %126
  br label %128

128:                                              ; preds = %127, %105
  br label %129

129:                                              ; preds = %128, %98
  br label %130

130:                                              ; preds = %129, %93, %90
  br label %131

131:                                              ; preds = %130, %53
  %132 = load i32, ptr %7, align 4, !tbaa !3
  call void @llvm.lifetime.end.p0(i64 1, ptr %8) #6
  call void @llvm.lifetime.end.p0(i64 4, ptr %7) #6
  call void @llvm.lifetime.end.p0(i64 8, ptr %6) #6
  call void @llvm.lifetime.end.p0(i64 8, ptr %5) #6
  ret i32 %132
}