; Function Attrs: nounwind uwtable
define range(i32 -1, 1) i32 @H5AC_create_flush_dependency(ptr noundef %0, ptr noundef %1) local_unnamed_addr #4 {
  %3 = load i8, ptr @H5AC_init_g, align 1, !tbaa !3, !range !7, !noundef !8
  %4 = trunc nuw i8 %3 to i1
  %5 = load i8, ptr @H5_libterm_g, align 1, !range !7
  %6 = trunc nuw i8 %5 to i1
  %7 = select i1 %4, i1 true, i1 %6
  br i1 %7, label %8, label %.thread, !prof !9

.thread:                                          ; preds = %2
  store i8 1, ptr @H5AC_init_g, align 1, !tbaa !3
  br label %11

8:                                                ; preds = %2
  %9 = xor i1 %6, true
  %10 = select i1 %4, i1 true, i1 %9
  br i1 %10, label %11, label %34, !prof !41

11:                                               ; preds = %.thread, %8
  %12 = load ptr, ptr %0, align 8, !tbaa !124
  %13 = tail call i32 @H5C_create_flush_dependency(ptr noundef nonnull %0, ptr noundef %1) #8
  %14 = icmp slt i32 %13, 0
  br i1 %14, label %15, label %19

15:                                               ; preds = %11
  %16 = load i64, ptr @H5E_CACHE_g, align 8, !tbaa !42
  %17 = load i64, ptr @H5E_CANTDEPEND_g, align 8, !tbaa !42
  %18 = tail call i32 (ptr, ptr, i32, i64, i64, ptr, ...) @H5E_printf_stack(ptr noundef nonnull @.str, ptr noundef nonnull @__func__.H5AC_create_flush_dependency, i32 noundef 1234, i64 noundef %16, i64 noundef %17, ptr noundef nonnull @.str.28) #8
  br label %19

19:                                               ; preds = %11, %15
  %.0 = phi i32 [ -1, %15 ], [ 0, %11 ]
  %.not = icmp eq ptr %12, null
  br i1 %.not, label %34, label %20

20:                                               ; preds = %19
  %21 = getelementptr inbounds nuw i8, ptr %12, i64 8
  %22 = load ptr, ptr %21, align 8, !tbaa !52
  %.not16 = icmp eq ptr %22, null
  br i1 %.not16, label %34, label %23

23:                                               ; preds = %20
  %24 = getelementptr inbounds nuw i8, ptr %22, i64 1
  %25 = load i8, ptr %24, align 1, !tbaa !60, !range !7, !noundef !8
  %26 = trunc nuw i8 %25 to i1
  br i1 %26, label %27, label %34

27:                                               ; preds = %23
  %28 = tail call i32 @H5C_log_write_create_fd_msg(ptr noundef nonnull %12, ptr noundef nonnull %0, ptr noundef %1, i32 noundef %.0) #8
  %29 = icmp slt i32 %28, 0
  br i1 %29, label %30, label %34

30:                                               ; preds = %27
  %31 = load i64, ptr @H5E_CACHE_g, align 8, !tbaa !42
  %32 = load i64, ptr @H5E_LOGGING_g, align 8, !tbaa !42
  %33 = tail call i32 (ptr, ptr, i32, i64, i64, ptr, ...) @H5E_printf_stack(ptr noundef nonnull @.str, ptr noundef nonnull @__func__.H5AC_create_flush_dependency, i32 noundef 1242, i64 noundef %31, i64 noundef %32, ptr noundef nonnull @.str.7) #8
  br label %34

34:                                               ; preds = %19, %20, %27, %30, %23, %8
  %.1 = phi i32 [ -1, %30 ], [ %.0, %27 ], [ %.0, %23 ], [ %.0, %20 ], [ %.0, %19 ], [ 0, %8 ]
  ret i32 %.1
}